; Function Attrs: mustprogress uwtable
define hidden noundef zeroext i1 @_ZN8tstrings8endsWithERKNSt7__cxx1112basic_stringIcSt11char_traitsIcESaIcEEES7_NS_11CompareTypeE(ptr noundef nonnull align 8 dereferenceable(32) %0, ptr noundef nonnull align 8 dereferenceable(32) %1, i32 noundef %2) local_unnamed_addr #3 personality ptr @__gxx_personality_v0 {
  %4 = alloca %"class.std::__cxx11::basic_string", align 8
  %5 = tail call noundef i64 @_ZNKSt7__cxx1112basic_stringIcSt11char_traitsIcESaIcEE4sizeEv(ptr noundef nonnull align 8 dereferenceable(32) %0) #13
  %6 = tail call noundef i64 @_ZNKSt7__cxx1112basic_stringIcSt11char_traitsIcESaIcEE4sizeEv(ptr noundef nonnull align 8 dereferenceable(32) %1) #13
  %7 = icmp ult i64 %5, %6
  br i1 %7, label %16, label %8

8:                                                ; preds = %3
  %9 = tail call noundef i64 @_ZNKSt7__cxx1112basic_stringIcSt11char_traitsIcESaIcEE4sizeEv(ptr noundef nonnull align 8 dereferenceable(32) %0) #13
  %10 = tail call noundef i64 @_ZNKSt7__cxx1112basic_stringIcSt11char_traitsIcESaIcEE4sizeEv(ptr noundef nonnull align 8 dereferenceable(32) %1) #13
  %11 = sub i64 %9, %10
  call void @_ZNKSt7__cxx1112basic_stringIcSt11char_traitsIcESaIcEE6substrEmm(ptr dead_on_unwind nonnull writable sret(%"class.std::__cxx11::basic_string") align 8 %4, ptr noundef nonnull align 8 dereferenceable(32) %0, i64 noundef %11, i64 noundef -1)
  %12 = invoke noundef zeroext i1 @_ZN8tstrings6equalsERKNSt7__cxx1112basic_stringIcSt11char_traitsIcESaIcEEES7_NS_11CompareTypeE(ptr noundef nonnull align 8 dereferenceable(32) %4, ptr noundef nonnull align 8 dereferenceable(32) %1, i32 noundef %2)
          to label %13 unwind label %14

13:                                               ; preds = %8
  call void @_ZNSt7__cxx1112basic_stringIcSt11char_traitsIcESaIcEED1Ev(ptr noundef nonnull align 8 dereferenceable(32) %4) #13
  br label %16

14:                                               ; preds = %8
  %15 = landingpad { ptr, i32 }
          cleanup
  call void @_ZNSt7__cxx1112basic_stringIcSt11char_traitsIcESaIcEED1Ev(ptr noundef nonnull align 8 dereferenceable(32) %4) #13
  resume { ptr, i32 } %15

16:                                               ; preds = %3, %13
  %.0 = phi i1 [ %12, %13 ], [ false, %3 ]
  ret i1 %.0
}